; Function Attrs: nounwind uwtable
define range(i32 0, 12) i32 @curl_multi_socket_all(ptr noundef %0, ptr noundef %1) local_unnamed_addr #0 {
  %3 = getelementptr inbounds nuw i8, ptr %0, i64 649
  %4 = load i8, ptr %3, align 1
  %5 = and i8 %4, 4
  %.not = icmp eq i8 %5, 0
  br i1 %.not, label %6, label %8

6:                                                ; preds = %2
  %7 = tail call fastcc i32 @multi_socket(ptr noundef nonnull %0, i1 noundef zeroext true, i32 noundef -1, i32 noundef 0, ptr noundef %1)
  br label %8

8:                                                ; preds = %2, %6
  %.0 = phi i32 [ %7, %6 ], [ 8, %2 ]
  ret i32 %.0
}